
generated/rv64ui-p-sltu:     file format elf64-littleriscv


Disassembly of section .text.init:

0000000000000000 <_start>:
   0:	00000d13          	li	s10,0
   4:	00000d93          	li	s11,0

0000000000000008 <test_2>:
   8:	00000093          	li	ra,0
   c:	00000113          	li	sp,0
  10:	0020bf33          	sltu	t5,ra,sp
  14:	00000e93          	li	t4,0
  18:	00200193          	li	gp,2
  1c:	4fdf1c63          	bne	t5,t4,514 <fail>

0000000000000020 <test_3>:
  20:	00100093          	li	ra,1
  24:	00100113          	li	sp,1
  28:	0020bf33          	sltu	t5,ra,sp
  2c:	00000e93          	li	t4,0
  30:	00300193          	li	gp,3
  34:	4fdf1063          	bne	t5,t4,514 <fail>

0000000000000038 <test_4>:
  38:	00300093          	li	ra,3
  3c:	00700113          	li	sp,7
  40:	0020bf33          	sltu	t5,ra,sp
  44:	00100e93          	li	t4,1
  48:	00400193          	li	gp,4
  4c:	4ddf1463          	bne	t5,t4,514 <fail>

0000000000000050 <test_5>:
  50:	00700093          	li	ra,7
  54:	00300113          	li	sp,3
  58:	0020bf33          	sltu	t5,ra,sp
  5c:	00000e93          	li	t4,0
  60:	00500193          	li	gp,5
  64:	4bdf1863          	bne	t5,t4,514 <fail>

0000000000000068 <test_6>:
  68:	00000093          	li	ra,0
  6c:	00020137          	lui	sp,0x20
  70:	fff1011b          	addiw	sp,sp,-1
  74:	00f11113          	slli	sp,sp,0xf
  78:	0020bf33          	sltu	t5,ra,sp
  7c:	00100e93          	li	t4,1
  80:	00600193          	li	gp,6
  84:	49df1863          	bne	t5,t4,514 <fail>

0000000000000088 <test_7>:
  88:	0010009b          	addiw	ra,zero,1
  8c:	01f09093          	slli	ra,ra,0x1f
  90:	00000113          	li	sp,0
  94:	0020bf33          	sltu	t5,ra,sp
  98:	00000e93          	li	t4,0
  9c:	00700193          	li	gp,7
  a0:	47df1a63          	bne	t5,t4,514 <fail>

00000000000000a4 <test_8>:
  a4:	0010009b          	addiw	ra,zero,1
  a8:	01f09093          	slli	ra,ra,0x1f
  ac:	00020137          	lui	sp,0x20
  b0:	fff1011b          	addiw	sp,sp,-1
  b4:	00f11113          	slli	sp,sp,0xf
  b8:	0020bf33          	sltu	t5,ra,sp
  bc:	00100e93          	li	t4,1
  c0:	00800193          	li	gp,8
  c4:	45df1863          	bne	t5,t4,514 <fail>

00000000000000c8 <test_9>:
  c8:	00000093          	li	ra,0
  cc:	00008137          	lui	sp,0x8
  d0:	fff1011b          	addiw	sp,sp,-1
  d4:	0020bf33          	sltu	t5,ra,sp
  d8:	00100e93          	li	t4,1
  dc:	00900193          	li	gp,9
  e0:	43df1a63          	bne	t5,t4,514 <fail>

00000000000000e4 <test_10>:
  e4:	800000b7          	lui	ra,0x80000
  e8:	fff0809b          	addiw	ra,ra,-1
  ec:	00000113          	li	sp,0
  f0:	0020bf33          	sltu	t5,ra,sp
  f4:	00000e93          	li	t4,0
  f8:	00a00193          	li	gp,10
  fc:	41df1c63          	bne	t5,t4,514 <fail>

0000000000000100 <test_11>:
 100:	800000b7          	lui	ra,0x80000
 104:	fff0809b          	addiw	ra,ra,-1
 108:	00008137          	lui	sp,0x8
 10c:	fff1011b          	addiw	sp,sp,-1
 110:	0020bf33          	sltu	t5,ra,sp
 114:	00000e93          	li	t4,0
 118:	00b00193          	li	gp,11
 11c:	3fdf1c63          	bne	t5,t4,514 <fail>

0000000000000120 <test_12>:
 120:	0010009b          	addiw	ra,zero,1
 124:	01f09093          	slli	ra,ra,0x1f
 128:	00008137          	lui	sp,0x8
 12c:	fff1011b          	addiw	sp,sp,-1
 130:	0020bf33          	sltu	t5,ra,sp
 134:	00000e93          	li	t4,0
 138:	00c00193          	li	gp,12
 13c:	3ddf1c63          	bne	t5,t4,514 <fail>

0000000000000140 <test_13>:
 140:	800000b7          	lui	ra,0x80000
 144:	fff0809b          	addiw	ra,ra,-1
 148:	00020137          	lui	sp,0x20
 14c:	fff1011b          	addiw	sp,sp,-1
 150:	00f11113          	slli	sp,sp,0xf
 154:	0020bf33          	sltu	t5,ra,sp
 158:	00100e93          	li	t4,1
 15c:	00d00193          	li	gp,13
 160:	3bdf1a63          	bne	t5,t4,514 <fail>

0000000000000164 <test_14>:
 164:	00000093          	li	ra,0
 168:	0010011b          	addiw	sp,zero,1
 16c:	02011113          	slli	sp,sp,0x20
 170:	fff10113          	addi	sp,sp,-1 # 1ffff <begin_signature+0x1efff>
 174:	0020bf33          	sltu	t5,ra,sp
 178:	00100e93          	li	t4,1
 17c:	00e00193          	li	gp,14
 180:	39df1a63          	bne	t5,t4,514 <fail>

0000000000000184 <test_15>:
 184:	0010009b          	addiw	ra,zero,1
 188:	02009093          	slli	ra,ra,0x20
 18c:	fff08093          	addi	ra,ra,-1 # ffffffff7fffffff <begin_signature+0xffffffff7fffefff>
 190:	00100113          	li	sp,1
 194:	0020bf33          	sltu	t5,ra,sp
 198:	00000e93          	li	t4,0
 19c:	00f00193          	li	gp,15
 1a0:	37df1a63          	bne	t5,t4,514 <fail>

00000000000001a4 <test_16>:
 1a4:	0010009b          	addiw	ra,zero,1
 1a8:	02009093          	slli	ra,ra,0x20
 1ac:	fff08093          	addi	ra,ra,-1
 1b0:	0010011b          	addiw	sp,zero,1
 1b4:	02011113          	slli	sp,sp,0x20
 1b8:	fff10113          	addi	sp,sp,-1
 1bc:	0020bf33          	sltu	t5,ra,sp
 1c0:	00000e93          	li	t4,0
 1c4:	01000193          	li	gp,16
 1c8:	35df1663          	bne	t5,t4,514 <fail>

00000000000001cc <test_17>:
 1cc:	00e00093          	li	ra,14
 1d0:	00d00113          	li	sp,13
 1d4:	0020b0b3          	sltu	ra,ra,sp
 1d8:	00000e93          	li	t4,0
 1dc:	01100193          	li	gp,17
 1e0:	33d09a63          	bne	ra,t4,514 <fail>

00000000000001e4 <test_18>:
 1e4:	00b00093          	li	ra,11
 1e8:	00d00113          	li	sp,13
 1ec:	0020b133          	sltu	sp,ra,sp
 1f0:	00100e93          	li	t4,1
 1f4:	01200193          	li	gp,18
 1f8:	31d11e63          	bne	sp,t4,514 <fail>

00000000000001fc <test_19>:
 1fc:	00d00093          	li	ra,13
 200:	0010b0b3          	sltu	ra,ra,ra
 204:	00000e93          	li	t4,0
 208:	01300193          	li	gp,19
 20c:	31d09463          	bne	ra,t4,514 <fail>

0000000000000210 <test_20>:
 210:	00000213          	li	tp,0
 214:	00b00093          	li	ra,11
 218:	00d00113          	li	sp,13
 21c:	0020bf33          	sltu	t5,ra,sp
 220:	000f0313          	mv	t1,t5
 224:	00120213          	addi	tp,tp,1 # 1 <_start+0x1>
 228:	00200293          	li	t0,2
 22c:	fe5214e3          	bne	tp,t0,214 <test_20+0x4>
 230:	00100e93          	li	t4,1
 234:	01400193          	li	gp,20
 238:	2dd31e63          	bne	t1,t4,514 <fail>

000000000000023c <test_21>:
 23c:	00000213          	li	tp,0
 240:	00e00093          	li	ra,14
 244:	00d00113          	li	sp,13
 248:	0020bf33          	sltu	t5,ra,sp
 24c:	00000013          	nop
 250:	000f0313          	mv	t1,t5
 254:	00120213          	addi	tp,tp,1 # 1 <_start+0x1>
 258:	00200293          	li	t0,2
 25c:	fe5212e3          	bne	tp,t0,240 <test_21+0x4>
 260:	00000e93          	li	t4,0
 264:	01500193          	li	gp,21
 268:	2bd31663          	bne	t1,t4,514 <fail>

000000000000026c <test_22>:
 26c:	00000213          	li	tp,0
 270:	00c00093          	li	ra,12
 274:	00d00113          	li	sp,13
 278:	0020bf33          	sltu	t5,ra,sp
 27c:	00000013          	nop
 280:	00000013          	nop
 284:	000f0313          	mv	t1,t5
 288:	00120213          	addi	tp,tp,1 # 1 <_start+0x1>
 28c:	00200293          	li	t0,2
 290:	fe5210e3          	bne	tp,t0,270 <test_22+0x4>
 294:	00100e93          	li	t4,1
 298:	01600193          	li	gp,22
 29c:	27d31c63          	bne	t1,t4,514 <fail>

00000000000002a0 <test_23>:
 2a0:	00000213          	li	tp,0
 2a4:	00e00093          	li	ra,14
 2a8:	00d00113          	li	sp,13
 2ac:	0020bf33          	sltu	t5,ra,sp
 2b0:	00120213          	addi	tp,tp,1 # 1 <_start+0x1>
 2b4:	00200293          	li	t0,2
 2b8:	fe5216e3          	bne	tp,t0,2a4 <test_23+0x4>
 2bc:	00000e93          	li	t4,0
 2c0:	01700193          	li	gp,23
 2c4:	25df1863          	bne	t5,t4,514 <fail>

00000000000002c8 <test_24>:
 2c8:	00000213          	li	tp,0
 2cc:	00b00093          	li	ra,11
 2d0:	00d00113          	li	sp,13
 2d4:	00000013          	nop
 2d8:	0020bf33          	sltu	t5,ra,sp
 2dc:	00120213          	addi	tp,tp,1 # 1 <_start+0x1>
 2e0:	00200293          	li	t0,2
 2e4:	fe5214e3          	bne	tp,t0,2cc <test_24+0x4>
 2e8:	00100e93          	li	t4,1
 2ec:	01800193          	li	gp,24
 2f0:	23df1263          	bne	t5,t4,514 <fail>

00000000000002f4 <test_25>:
 2f4:	00000213          	li	tp,0
 2f8:	00f00093          	li	ra,15
 2fc:	00d00113          	li	sp,13
 300:	00000013          	nop
 304:	00000013          	nop
 308:	0020bf33          	sltu	t5,ra,sp
 30c:	00120213          	addi	tp,tp,1 # 1 <_start+0x1>
 310:	00200293          	li	t0,2
 314:	fe5212e3          	bne	tp,t0,2f8 <test_25+0x4>
 318:	00000e93          	li	t4,0
 31c:	01900193          	li	gp,25
 320:	1fdf1a63          	bne	t5,t4,514 <fail>

0000000000000324 <test_26>:
 324:	00000213          	li	tp,0
 328:	00a00093          	li	ra,10
 32c:	00000013          	nop
 330:	00d00113          	li	sp,13
 334:	0020bf33          	sltu	t5,ra,sp
 338:	00120213          	addi	tp,tp,1 # 1 <_start+0x1>
 33c:	00200293          	li	t0,2
 340:	fe5214e3          	bne	tp,t0,328 <test_26+0x4>
 344:	00100e93          	li	t4,1
 348:	01a00193          	li	gp,26
 34c:	1ddf1463          	bne	t5,t4,514 <fail>

0000000000000350 <test_27>:
 350:	00000213          	li	tp,0
 354:	01000093          	li	ra,16
 358:	00000013          	nop
 35c:	00d00113          	li	sp,13
 360:	00000013          	nop
 364:	0020bf33          	sltu	t5,ra,sp
 368:	00120213          	addi	tp,tp,1 # 1 <_start+0x1>
 36c:	00200293          	li	t0,2
 370:	fe5212e3          	bne	tp,t0,354 <test_27+0x4>
 374:	00000e93          	li	t4,0
 378:	01b00193          	li	gp,27
 37c:	19df1c63          	bne	t5,t4,514 <fail>

0000000000000380 <test_28>:
 380:	00000213          	li	tp,0
 384:	00900093          	li	ra,9
 388:	00000013          	nop
 38c:	00000013          	nop
 390:	00d00113          	li	sp,13
 394:	0020bf33          	sltu	t5,ra,sp
 398:	00120213          	addi	tp,tp,1 # 1 <_start+0x1>
 39c:	00200293          	li	t0,2
 3a0:	fe5212e3          	bne	tp,t0,384 <test_28+0x4>
 3a4:	00100e93          	li	t4,1
 3a8:	01c00193          	li	gp,28
 3ac:	17df1463          	bne	t5,t4,514 <fail>

00000000000003b0 <test_29>:
 3b0:	00000213          	li	tp,0
 3b4:	00d00113          	li	sp,13
 3b8:	01100093          	li	ra,17
 3bc:	0020bf33          	sltu	t5,ra,sp
 3c0:	00120213          	addi	tp,tp,1 # 1 <_start+0x1>
 3c4:	00200293          	li	t0,2
 3c8:	fe5216e3          	bne	tp,t0,3b4 <test_29+0x4>
 3cc:	00000e93          	li	t4,0
 3d0:	01d00193          	li	gp,29
 3d4:	15df1063          	bne	t5,t4,514 <fail>

00000000000003d8 <test_30>:
 3d8:	00000213          	li	tp,0
 3dc:	00d00113          	li	sp,13
 3e0:	00800093          	li	ra,8
 3e4:	00000013          	nop
 3e8:	0020bf33          	sltu	t5,ra,sp
 3ec:	00120213          	addi	tp,tp,1 # 1 <_start+0x1>
 3f0:	00200293          	li	t0,2
 3f4:	fe5214e3          	bne	tp,t0,3dc <test_30+0x4>
 3f8:	00100e93          	li	t4,1
 3fc:	01e00193          	li	gp,30
 400:	11df1a63          	bne	t5,t4,514 <fail>

0000000000000404 <test_31>:
 404:	00000213          	li	tp,0
 408:	00d00113          	li	sp,13
 40c:	01200093          	li	ra,18
 410:	00000013          	nop
 414:	00000013          	nop
 418:	0020bf33          	sltu	t5,ra,sp
 41c:	00120213          	addi	tp,tp,1 # 1 <_start+0x1>
 420:	00200293          	li	t0,2
 424:	fe5212e3          	bne	tp,t0,408 <test_31+0x4>
 428:	00000e93          	li	t4,0
 42c:	01f00193          	li	gp,31
 430:	0fdf1263          	bne	t5,t4,514 <fail>

0000000000000434 <test_32>:
 434:	00000213          	li	tp,0
 438:	00d00113          	li	sp,13
 43c:	00000013          	nop
 440:	00700093          	li	ra,7
 444:	0020bf33          	sltu	t5,ra,sp
 448:	00120213          	addi	tp,tp,1 # 1 <_start+0x1>
 44c:	00200293          	li	t0,2
 450:	fe5214e3          	bne	tp,t0,438 <test_32+0x4>
 454:	00100e93          	li	t4,1
 458:	02000193          	li	gp,32
 45c:	0bdf1c63          	bne	t5,t4,514 <fail>

0000000000000460 <test_33>:
 460:	00000213          	li	tp,0
 464:	00d00113          	li	sp,13
 468:	00000013          	nop
 46c:	01300093          	li	ra,19
 470:	00000013          	nop
 474:	0020bf33          	sltu	t5,ra,sp
 478:	00120213          	addi	tp,tp,1 # 1 <_start+0x1>
 47c:	00200293          	li	t0,2
 480:	fe5212e3          	bne	tp,t0,464 <test_33+0x4>
 484:	00000e93          	li	t4,0
 488:	02100193          	li	gp,33
 48c:	09df1463          	bne	t5,t4,514 <fail>

0000000000000490 <test_34>:
 490:	00000213          	li	tp,0
 494:	00d00113          	li	sp,13
 498:	00000013          	nop
 49c:	00000013          	nop
 4a0:	00600093          	li	ra,6
 4a4:	0020bf33          	sltu	t5,ra,sp
 4a8:	00120213          	addi	tp,tp,1 # 1 <_start+0x1>
 4ac:	00200293          	li	t0,2
 4b0:	fe5212e3          	bne	tp,t0,494 <test_34+0x4>
 4b4:	00100e93          	li	t4,1
 4b8:	02200193          	li	gp,34
 4bc:	05df1c63          	bne	t5,t4,514 <fail>

00000000000004c0 <test_35>:
 4c0:	fff00093          	li	ra,-1
 4c4:	00103133          	snez	sp,ra
 4c8:	00100e93          	li	t4,1
 4cc:	02300193          	li	gp,35
 4d0:	05d11263          	bne	sp,t4,514 <fail>

00000000000004d4 <test_36>:
 4d4:	fff00093          	li	ra,-1
 4d8:	0000b133          	sltu	sp,ra,zero
 4dc:	00000e93          	li	t4,0
 4e0:	02400193          	li	gp,36
 4e4:	03d11863          	bne	sp,t4,514 <fail>

00000000000004e8 <test_37>:
 4e8:	000030b3          	snez	ra,zero
 4ec:	00000e93          	li	t4,0
 4f0:	02500193          	li	gp,37
 4f4:	03d09063          	bne	ra,t4,514 <fail>

00000000000004f8 <test_38>:
 4f8:	01000093          	li	ra,16
 4fc:	01e00113          	li	sp,30
 500:	0020b033          	sltu	zero,ra,sp
 504:	00000e93          	li	t4,0
 508:	02600193          	li	gp,38
 50c:	01d01463          	bne	zero,t4,514 <fail>
 510:	00301863          	bne	zero,gp,520 <pass>

0000000000000514 <fail>:
 514:	00100d13          	li	s10,1
 518:	00000d93          	li	s11,0

000000000000051c <loop_fail>:
 51c:	0000006f          	j	51c <loop_fail>

0000000000000520 <pass>:
 520:	00100d13          	li	s10,1
 524:	00100d93          	li	s11,1

0000000000000528 <loop_pass>:
 528:	0000006f          	j	528 <loop_pass>
	...

Disassembly of section .tohost:

0000000000000580 <tohost>:
	...

00000000000005c0 <fromhost>:
	...
