
generated/rv64um-p-divw:     file format elf64-littleriscv


Disassembly of section .text.init:

0000000000000000 <_start>:
   0:	00000d13          	li	s10,0
   4:	00000d93          	li	s11,0

0000000000000008 <test_2>:
   8:	01400093          	li	ra,20
   c:	00600113          	li	sp,6
  10:	0220cf3b          	divw	t5,ra,sp
  14:	00300e93          	li	t4,3
  18:	00200193          	li	gp,2
  1c:	0ddf1463          	bne	t5,t4,e4 <fail>

0000000000000020 <test_3>:
  20:	fec00093          	li	ra,-20
  24:	00600113          	li	sp,6
  28:	0220cf3b          	divw	t5,ra,sp
  2c:	ffd00e93          	li	t4,-3
  30:	00300193          	li	gp,3
  34:	0bdf1863          	bne	t5,t4,e4 <fail>

0000000000000038 <test_4>:
  38:	01400093          	li	ra,20
  3c:	ffa00113          	li	sp,-6
  40:	0220cf3b          	divw	t5,ra,sp
  44:	ffd00e93          	li	t4,-3
  48:	00400193          	li	gp,4
  4c:	09df1c63          	bne	t5,t4,e4 <fail>

0000000000000050 <test_5>:
  50:	fec00093          	li	ra,-20
  54:	ffa00113          	li	sp,-6
  58:	0220cf3b          	divw	t5,ra,sp
  5c:	00300e93          	li	t4,3
  60:	00500193          	li	gp,5
  64:	09df1063          	bne	t5,t4,e4 <fail>

0000000000000068 <test_6>:
  68:	800000b7          	lui	ra,0x80000
  6c:	00100113          	li	sp,1
  70:	0220cf3b          	divw	t5,ra,sp
  74:	80000eb7          	lui	t4,0x80000
  78:	00600193          	li	gp,6
  7c:	07df1463          	bne	t5,t4,e4 <fail>

0000000000000080 <test_7>:
  80:	800000b7          	lui	ra,0x80000
  84:	fff00113          	li	sp,-1
  88:	0220cf3b          	divw	t5,ra,sp
  8c:	80000eb7          	lui	t4,0x80000
  90:	00700193          	li	gp,7
  94:	05df1863          	bne	t5,t4,e4 <fail>

0000000000000098 <test_8>:
  98:	800000b7          	lui	ra,0x80000
  9c:	00000113          	li	sp,0
  a0:	0220cf3b          	divw	t5,ra,sp
  a4:	fff00e93          	li	t4,-1
  a8:	00800193          	li	gp,8
  ac:	03df1c63          	bne	t5,t4,e4 <fail>

00000000000000b0 <test_9>:
  b0:	00100093          	li	ra,1
  b4:	00000113          	li	sp,0
  b8:	0220cf3b          	divw	t5,ra,sp
  bc:	fff00e93          	li	t4,-1
  c0:	00900193          	li	gp,9
  c4:	03df1063          	bne	t5,t4,e4 <fail>

00000000000000c8 <test_10>:
  c8:	00000093          	li	ra,0
  cc:	00000113          	li	sp,0
  d0:	0220cf3b          	divw	t5,ra,sp
  d4:	fff00e93          	li	t4,-1
  d8:	00a00193          	li	gp,10
  dc:	01df1463          	bne	t5,t4,e4 <fail>
  e0:	00301863          	bne	zero,gp,f0 <pass>

00000000000000e4 <fail>:
  e4:	00100d13          	li	s10,1
  e8:	00000d93          	li	s11,0

00000000000000ec <loop_fail>:
  ec:	0000006f          	j	ec <loop_fail>

00000000000000f0 <pass>:
  f0:	00100d13          	li	s10,1
  f4:	00100d93          	li	s11,1

00000000000000f8 <loop_pass>:
  f8:	0000006f          	j	f8 <loop_pass>
	...

Disassembly of section .tohost:

0000000000000140 <tohost>:
	...

0000000000000180 <fromhost>:
	...
